target datalayout = "e-m:e-p270:32:32-p271:32:32-p272:64:64-i64:64-i128:128-f80:128-n8:16:32:64-S128"
target triple = "x86_64-pc-linux-gnu"

%class.Statement = type { ptr, i32, i32, ptr, ptr }

; Function Attrs: mustprogress uwtable
define dso_local noundef zeroext i1 @_ZNK9Statement8dominateEPKS_(ptr noundef nonnull align 8 dereferenceable(32) %0, ptr noundef %1) #5 align 2 {
  %3 = alloca i1, align 1
  %4 = alloca ptr, align 8
  %5 = alloca ptr, align 8
  %6 = alloca ptr, align 8
  store ptr %0, ptr %4, align 8
  store ptr %1, ptr %5, align 8
  %7 = load ptr, ptr %4, align 8
  %8 = load ptr, ptr %5, align 8
  %9 = getelementptr inbounds %class.Statement, ptr %8, i32 0, i32 4
  %10 = load ptr, ptr %9, align 8
  %11 = icmp eq ptr %10, %7
  br i1 %11, label %12, label %13

12:                                               ; preds = %2
  store i1 true, ptr %3, align 1
  br label %43

13:                                               ; preds = %2
  %14 = getelementptr inbounds %class.Statement, ptr %7, i32 0, i32 4
  %15 = load ptr, ptr %14, align 8
  %16 = load ptr, ptr %5, align 8
  %17 = getelementptr inbounds %class.Statement, ptr %16, i32 0, i32 4
  %18 = load ptr, ptr %17, align 8
  %19 = icmp eq ptr %15, %18
  br i1 %19, label %20, label %27

20:                                               ; preds = %13
  %21 = getelementptr inbounds %class.Statement, ptr %7, i32 0, i32 2
  %22 = load i32, ptr %21, align 4
  %23 = load ptr, ptr %5, align 8
  %24 = getelementptr inbounds %class.Statement, ptr %23, i32 0, i32 2
  %25 = load i32, ptr %24, align 4
  %26 = icmp sle i32 %22, %25
  store i1 %26, ptr %3, align 1
  br label %43

27:                                               ; preds = %13
  %28 = load ptr, ptr %5, align 8
  %29 = call noundef ptr @_ZNK9Statement18find_container_stmEv(ptr noundef nonnull align 8 dereferenceable(32) %28)
  store ptr %29, ptr %6, align 8
  %30 = load ptr, ptr %6, align 8
  %31 = icmp eq ptr %30, null
  br i1 %31, label %32, label %36

32:                                               ; preds = %27
  %33 = load ptr, ptr %5, align 8
  %34 = getelementptr inbounds %class.Statement, ptr %33, i32 0, i32 4
  %35 = load ptr, ptr %34, align 8
  store ptr %35, ptr %6, align 8
  br label %36

36:                                               ; preds = %32, %27
  %37 = load ptr, ptr %6, align 8
  %38 = icmp ne ptr %37, null
  br i1 %38, label %39, label %42

39:                                               ; preds = %36
  %40 = load ptr, ptr %6, align 8
  %41 = call noundef zeroext i1 @_ZNK9Statement8dominateEPKS_(ptr noundef nonnull align 8 dereferenceable(32) %7, ptr noundef %40)
  store i1 %41, ptr %3, align 1
  br label %43

42:                                               ; preds = %36
  store i1 false, ptr %3, align 1
  br label %43

43:                                               ; preds = %42, %39, %20, %12
  %44 = load i1, ptr %3, align 1
  ret i1 %44
}