; Function Attrs: mustprogress uwtable
define dso_local noundef zeroext i1 @_ZNK9Statement8dominateEPKS_(ptr noundef nonnull readonly align 8 dereferenceable(32) %0, ptr noundef %1) local_unnamed_addr #4 align 2 {
  %3 = getelementptr inbounds i8, ptr %1, i64 24
  %4 = load ptr, ptr %3, align 8
  %5 = icmp eq ptr %4, %0
  br i1 %5, label %.loopexit, label %.lr.ph

.lr.ph:                                           ; preds = %2
  %6 = getelementptr inbounds i8, ptr %0, i64 24
  br label %7

7:                                                ; preds = %.lr.ph, %.thread
  %8 = phi ptr [ %4, %.lr.ph ], [ %24, %.thread ]
  %9 = phi ptr [ %3, %.lr.ph ], [ %23, %.thread ]
  %.tr1719 = phi ptr [ %1, %.lr.ph ], [ %.016, %.thread ]
  %10 = load ptr, ptr %6, align 8
  %11 = icmp eq ptr %10, %8
  br i1 %11, label %12, label %18

12:                                               ; preds = %7
  %13 = getelementptr inbounds i8, ptr %0, i64 12
  %14 = load i32, ptr %13, align 4
  %15 = getelementptr inbounds i8, ptr %.tr1719, i64 12
  %16 = load i32, ptr %15, align 4
  %17 = icmp sle i32 %14, %16
  br label %.loopexit

18:                                               ; preds = %7
  %19 = tail call noundef ptr @_ZNK9Statement18find_container_stmEv(ptr noundef nonnull align 8 dereferenceable(32) %.tr1719)
  %20 = icmp eq ptr %19, null
  br i1 %20, label %21, label %.thread

21:                                               ; preds = %18
  %22 = load ptr, ptr %9, align 8
  %.not = icmp eq ptr %22, null
  br i1 %.not, label %.loopexit, label %.thread

.thread:                                          ; preds = %18, %21
  %.016 = phi ptr [ %22, %21 ], [ %19, %18 ]
  %23 = getelementptr inbounds i8, ptr %.016, i64 24
  %24 = load ptr, ptr %23, align 8
  %25 = icmp eq ptr %24, %0
  br i1 %25, label %.loopexit, label %7

.loopexit:                                        ; preds = %.thread, %21, %2, %12
  %.010 = phi i1 [ %17, %12 ], [ true, %2 ], [ true, %.thread ], [ false, %21 ]
  ret i1 %.010
}